target datalayout = "e-m:e-p270:32:32-p271:32:32-p272:64:64-i64:64-i128:128-f80:128-n8:16:32:64-S128"
target triple = "x86_64-pc-linux-gnu"

@.str.74 = private unnamed_addr constant [7 x i8] c"\00KMGTP\00", align 1
@.str.75 = private unnamed_addr constant [50 x i8] c"Invalid unit type '%c'. Possible options are '%s'\00", align 1

; Function Attrs: nounwind uwtable
define dso_local i32 @get_unit_type(i8 noundef signext %0) #0 {
  %2 = alloca i32, align 4
  %3 = alloca i8, align 1
  %4 = alloca ptr, align 8
  %5 = alloca ptr, align 8
  %6 = alloca i32, align 4
  %7 = alloca i32, align 4
  %8 = alloca i32, align 4
  store i8 %0, ptr %3, align 1
  call void @llvm.lifetime.start.p0(i64 8, ptr %4) #12
  store ptr @.str.74, ptr %4, align 8
  call void @llvm.lifetime.start.p0(i64 8, ptr %5) #12
  store ptr null, ptr %5, align 8
  %9 = load i8, ptr %3, align 1
  %10 = sext i8 %9 to i32
  %11 = icmp eq i32 %10, 0
  br i1 %11, label %12, label %18

12:                                               ; preds = %1
  %13 = load i8, ptr %3, align 1
  %14 = sext i8 %13 to i32
  %15 = load ptr, ptr %4, align 8
  %16 = getelementptr inbounds i8, ptr %15, i64 1
  %17 = call i32 (ptr, ...) @error(ptr noundef @.str.75, i32 noundef %14, ptr noundef %16)
  store i32 -1, ptr %2, align 4
  store i32 1, ptr %6, align 4
  br label %46

18:                                               ; preds = %1
  %19 = load ptr, ptr %4, align 8
  %20 = getelementptr inbounds i8, ptr %19, i64 1
  call void @llvm.lifetime.start.p0(i64 4, ptr %7) #12
  %21 = call ptr @__ctype_toupper_loc() #14
  %22 = load ptr, ptr %21, align 8
  %23 = load i8, ptr %3, align 1
  %24 = sext i8 %23 to i32
  %25 = sext i32 %24 to i64
  %26 = getelementptr inbounds i32, ptr %22, i64 %25
  %27 = load i32, ptr %26, align 4
  store i32 %27, ptr %7, align 4
  %28 = load i32, ptr %7, align 4
  store i32 %28, ptr %8, align 4
  call void @llvm.lifetime.end.p0(i64 4, ptr %7) #12
  %29 = load i32, ptr %8, align 4
  %30 = call ptr @strchr(ptr noundef %20, i32 noundef %29) #13
  store ptr %30, ptr %5, align 8
  %31 = load ptr, ptr %5, align 8
  %32 = icmp ne ptr %31, null
  br i1 %32, label %39, label %33

33:                                               ; preds = %18
  %34 = load i8, ptr %3, align 1
  %35 = sext i8 %34 to i32
  %36 = load ptr, ptr %4, align 8
  %37 = getelementptr inbounds i8, ptr %36, i64 1
  %38 = call i32 (ptr, ...) @error(ptr noundef @.str.75, i32 noundef %35, ptr noundef %37)
  store i32 -1, ptr %2, align 4
  store i32 1, ptr %6, align 4
  br label %46

39:                                               ; preds = %18
  %40 = load ptr, ptr %5, align 8
  %41 = load ptr, ptr %4, align 8
  %42 = ptrtoint ptr %40 to i64
  %43 = ptrtoint ptr %41 to i64
  %44 = sub i64 %42, %43
  %45 = trunc i64 %44 to i32
  store i32 %45, ptr %2, align 4
  store i32 1, ptr %6, align 4
  br label %46

46:                                               ; preds = %39, %33, %12
  call void @llvm.lifetime.end.p0(i64 8, ptr %5) #12
  call void @llvm.lifetime.end.p0(i64 8, ptr %4) #12
  %47 = load i32, ptr %2, align 4
  ret i32 %47
}

; Function Attrs: nounwind uwtable
define dso_local i32 @get_convert_unit_val(i32 noundef %0, i8 noundef signext %1) #0 {
  %3 = alloca i32, align 4
  %4 = alloca i32, align 4
  %5 = alloca i8, align 1
  %6 = alloca i32, align 4
  %7 = alloca i32, align 4
  %8 = alloca i32, align 4
  store i32 %0, ptr %4, align 4
  store i8 %1, ptr %5, align 1
  call void @llvm.lifetime.start.p0(i64 4, ptr %6) #12
  store i32 0, ptr %6, align 4
  call void @llvm.lifetime.start.p0(i64 4, ptr %7) #12
  store i32 0, ptr %7, align 4
  %9 = load i8, ptr %5, align 1
  %10 = call i32 @get_unit_type(i8 noundef signext %9)
  store i32 %10, ptr %6, align 4
  %11 = icmp eq i32 %10, -1
  br i1 %11, label %12, label %13

12:                                               ; preds = %2
  store i32 -1, ptr %3, align 4
  store i32 1, ptr %8, align 4
  br label %29

13:                                               ; preds = %2
  br label %14

14:                                               ; preds = %26, %13
  %15 = load i32, ptr %4, align 4
  %16 = add nsw i32 %15, 1
  store i32 %16, ptr %4, align 4
  %17 = load i32, ptr %6, align 4
  %18 = icmp slt i32 %15, %17
  br i1 %18, label %19, label %27

19:                                               ; preds = %14
  %20 = load i32, ptr %7, align 4
  %21 = icmp ne i32 %20, 0
  br i1 %21, label %23, label %22

22:                                               ; preds = %19
  store i32 1024, ptr %7, align 4
  br label %26

23:                                               ; preds = %19
  %24 = load i32, ptr %7, align 4
  %25 = mul nsw i32 %24, 1024
  store i32 %25, ptr %7, align 4
  br label %26

26:                                               ; preds = %23, %22
  br label %14, !llvm.loop !15

27:                                               ; preds = %14
  %28 = load i32, ptr %7, align 4
  store i32 %28, ptr %3, align 4
  store i32 1, ptr %8, align 4
  br label %29

29:                                               ; preds = %27, %12
  call void @llvm.lifetime.end.p0(i64 4, ptr %7) #12
  call void @llvm.lifetime.end.p0(i64 4, ptr %6) #12
  %30 = load i32, ptr %3, align 4
  ret i32 %30
}