; Function Attrs: nounwind uwtable
define dso_local range(i32 -2147483648, 2147482625) i32 @get_convert_unit_val(i32 noundef %0, i8 noundef signext %1) #1 {
  %3 = icmp eq i8 %1, 0
  br i1 %3, label %get_unit_type.exit.thread.sink.split, label %4

4:                                                ; preds = %2
  %5 = sext i8 %1 to i32
  %6 = tail call ptr @__ctype_toupper_loc() #21
  %7 = load ptr, ptr %6, align 8
  %8 = sext i8 %1 to i64
  %9 = getelementptr inbounds i32, ptr %7, i64 %8
  %10 = load i32, ptr %9, align 4
  %memchr.i = tail call ptr @memchr(ptr noundef nonnull dereferenceable(1) getelementptr inbounds nuw (i8, ptr @.str.74, i64 1), i32 %10, i64 6)
  %.not.i = icmp eq ptr %memchr.i, null
  br i1 %.not.i, label %get_unit_type.exit.thread.sink.split, label %get_unit_type.exit

get_unit_type.exit:                               ; preds = %4
  %11 = ptrtoint ptr %memchr.i to i64
  %12 = trunc i64 %11 to i32
  %13 = sub i32 %12, ptrtoint (ptr @.str.74 to i32)
  %14 = icmp eq i32 %13, -1
  br i1 %14, label %get_unit_type.exit.thread, label %.preheader

.preheader:                                       ; preds = %get_unit_type.exit
  %15 = icmp slt i32 %0, %13
  br i1 %15, label %.lr.ph, label %get_unit_type.exit.thread

.lr.ph:                                           ; preds = %.preheader, %.lr.ph
  %.011 = phi i32 [ %.1, %.lr.ph ], [ 0, %.preheader ]
  %.0810 = phi i32 [ %16, %.lr.ph ], [ %0, %.preheader ]
  %16 = add nsw i32 %.0810, 1
  %.not = icmp eq i32 %.011, 0
  %17 = shl nsw i32 %.011, 10
  %.1 = select i1 %.not, i32 1024, i32 %17
  %18 = icmp slt i32 %16, %13
  br i1 %18, label %.lr.ph, label %get_unit_type.exit.thread, !llvm.loop !15

get_unit_type.exit.thread.sink.split:             ; preds = %4, %2
  %.sink = phi i32 [ 0, %2 ], [ %5, %4 ]
  %19 = tail call i32 (ptr, ...) @error(ptr noundef nonnull @.str.75, i32 noundef %.sink, ptr noundef nonnull getelementptr inbounds nuw (i8, ptr @.str.74, i64 1)) #19
  br label %get_unit_type.exit.thread

get_unit_type.exit.thread:                        ; preds = %.lr.ph, %get_unit_type.exit.thread.sink.split, %.preheader, %get_unit_type.exit
  %.07 = phi i32 [ -1, %get_unit_type.exit ], [ 0, %.preheader ], [ -1, %get_unit_type.exit.thread.sink.split ], [ %.1, %.lr.ph ]
  ret i32 %.07
}